; Function Attrs: mustprogress uwtable
define void @_ZN19OpenColorIO_v2_5dev13ColorSpaceSet17removeColorSpacesERKSt10shared_ptrIKS0_E(ptr noundef nonnull readonly align 8 captures(none) dereferenceable(8) %0, ptr noundef nonnull readonly align 8 captures(none) dereferenceable(16) %1) local_unnamed_addr #0 align 2 {
  %3 = load ptr, ptr %0, align 8, !tbaa !22
  %4 = load ptr, ptr %1, align 8, !tbaa !63
  %5 = load ptr, ptr %4, align 8, !tbaa !22
  %6 = load ptr, ptr %5, align 8, !tbaa !35
  %7 = getelementptr inbounds nuw i8, ptr %5, i64 8
  %8 = load ptr, ptr %7, align 8, !tbaa !35
  %.not8.i = icmp eq ptr %6, %8
  br i1 %.not8.i, label %_ZN19OpenColorIO_v2_5dev13ColorSpaceSet4Impl6removeERKS1_.exit, label %.lr.ph.i

.lr.ph.i:                                         ; preds = %2, %.lr.ph.i
  %.sroa.05.09.i = phi ptr [ %11, %.lr.ph.i ], [ %6, %2 ]
  %9 = load ptr, ptr %.sroa.05.09.i, align 8, !tbaa !36
  %10 = tail call noundef ptr @_ZNK19OpenColorIO_v2_5dev10ColorSpace7getNameEv(ptr noundef nonnull align 8 dereferenceable(8) %9) #23
  tail call void @_ZN19OpenColorIO_v2_5dev13ColorSpaceSet4Impl6removeEPKc(ptr noundef nonnull align 8 dereferenceable(24) %3, ptr noundef %10)
  %11 = getelementptr inbounds nuw i8, ptr %.sroa.05.09.i, i64 16
  %.not.i = icmp eq ptr %11, %8
  br i1 %.not.i, label %_ZN19OpenColorIO_v2_5dev13ColorSpaceSet4Impl6removeERKS1_.exit, label %.lr.ph.i

_ZN19OpenColorIO_v2_5dev13ColorSpaceSet4Impl6removeERKS1_.exit: ; preds = %.lr.ph.i, %2
  ret void
}